; ModuleID = '45/2413.c'
source_filename = "45/2413.c"
target datalayout = "e-m:e-p270:32:32-p271:32:32-p272:64:64-i64:64-f80:128-n8:16:32:64-S128"
target triple = "x86_64-pc-linux-gnu"

@.str = private unnamed_addr constant [6 x i8] c"%s %s\00", align 1
@.str.1 = private unnamed_addr constant [3 x i8] c"%d\00", align 1

; Function Attrs: noinline nounwind uwtable
define dso_local i32 @main() #0 {
  %1 = alloca i32, align 4
  %2 = alloca [50 x i8], align 16
  %3 = alloca [50 x i8], align 16
  %4 = alloca i8*, align 8
  %5 = alloca i8*, align 8
  %6 = alloca i32, align 4
  %7 = alloca i32, align 4
  %8 = alloca i32, align 4
  store i32 0, i32* %1, align 4
  %9 = getelementptr inbounds [50 x i8], [50 x i8]* %2, i64 0, i64 0
  store i8* %9, i8** %4, align 8
  %10 = getelementptr inbounds [50 x i8], [50 x i8]* %3, i64 0, i64 0
  store i8* %10, i8** %5, align 8
  %11 = getelementptr inbounds [50 x i8], [50 x i8]* %2, i64 0, i64 0
  %12 = getelementptr inbounds [50 x i8], [50 x i8]* %3, i64 0, i64 0
  %13 = call i32 (i8*, ...) @__isoc99_scanf(i8* getelementptr inbounds ([6 x i8], [6 x i8]* @.str, i64 0, i64 0), i8* %11, i8* %12)
  %14 = getelementptr inbounds [50 x i8], [50 x i8]* %2, i64 0, i64 0
  %15 = call i64 @strlen(i8* %14) #3
  %16 = trunc i64 %15 to i32
  store i32 %16, i32* %7, align 4
  %17 = getelementptr inbounds [50 x i8], [50 x i8]* %3, i64 0, i64 0
  %18 = call i64 @strlen(i8* %17) #3
  %19 = trunc i64 %18 to i32
  store i32 %19, i32* %8, align 4
  store i32 0, i32* %6, align 4
  br label %20

20:                                               ; preds = %48, %0
  %21 = load i32, i32* %6, align 4
  %22 = load i32, i32* %8, align 4
  %23 = icmp slt i32 %21, %22
  br i1 %23, label %24, label %51

24:                                               ; preds = %20
  %25 = load i32, i32* %6, align 4
  %26 = sext i32 %25 to i64
  %27 = getelementptr inbounds [50 x i8], [50 x i8]* %3, i64 0, i64 %26
  %28 = load i8, i8* %27, align 1
  %29 = sext i8 %28 to i32
  %30 = getelementptr inbounds [50 x i8], [50 x i8]* %2, i64 0, i64 0
  %31 = load i8, i8* %30, align 16
  %32 = sext i8 %31 to i32
  %33 = icmp eq i32 %29, %32
  br i1 %33, label %34, label %47

34:                                               ; preds = %24
  %35 = load i8*, i8** %4, align 8
  %36 = load i8*, i8** %5, align 8
  %37 = load i32, i32* %6, align 4
  %38 = sext i32 %37 to i64
  %39 = getelementptr inbounds i8, i8* %36, i64 %38
  %40 = load i32, i32* %7, align 4
  %41 = call i32 @panduan(i8* %35, i8* %39, i32 %40)
  %42 = icmp ne i32 %41, 0
  br i1 %42, label %43, label %46

43:                                               ; preds = %34
  %44 = load i32, i32* %6, align 4
  %45 = call i32 (i8*, ...) @printf(i8* getelementptr inbounds ([3 x i8], [3 x i8]* @.str.1, i64 0, i64 0), i32 %44)
  br label %51

46:                                               ; preds = %34
  br label %47

47:                                               ; preds = %46, %24
  br label %48

48:                                               ; preds = %47
  %49 = load i32, i32* %6, align 4
  %50 = add nsw i32 %49, 1
  store i32 %50, i32* %6, align 4
  br label %20

51:                                               ; preds = %43, %20
  ret i32 0
}

declare dso_local i32 @__isoc99_scanf(i8*, ...) #1

; Function Attrs: nounwind readonly
declare dso_local i64 @strlen(i8*) #2

; Function Attrs: noinline nounwind uwtable
define dso_local i32 @panduan(i8* %0, i8* %1, i32 %2) #0 {
  %4 = alloca i32, align 4
  %5 = alloca i8*, align 8
  %6 = alloca i8*, align 8
  %7 = alloca i32, align 4
  %8 = alloca i32, align 4
  store i8* %0, i8** %5, align 8
  store i8* %1, i8** %6, align 8
  store i32 %2, i32* %7, align 4
  store i32 0, i32* %8, align 4
  br label %9

9:                                                ; preds = %29, %3
  %10 = load i32, i32* %8, align 4
  %11 = load i32, i32* %7, align 4
  %12 = icmp slt i32 %10, %11
  br i1 %12, label %13, label %32

13:                                               ; preds = %9
  %14 = load i8*, i8** %5, align 8
  %15 = load i32, i32* %8, align 4
  %16 = sext i32 %15 to i64
  %17 = getelementptr inbounds i8, i8* %14, i64 %16
  %18 = load i8, i8* %17, align 1
  %19 = sext i8 %18 to i32
  %20 = load i8*, i8** %6, align 8
  %21 = load i32, i32* %8, align 4
  %22 = sext i32 %21 to i64
  %23 = getelementptr inbounds i8, i8* %20, i64 %22
  %24 = load i8, i8* %23, align 1
  %25 = sext i8 %24 to i32
  %26 = icmp ne i32 %19, %25
  br i1 %26, label %27, label %28

27:                                               ; preds = %13
  store i32 0, i32* %4, align 4
  br label %33

28:                                               ; preds = %13
  br label %29

29:                                               ; preds = %28
  %30 = load i32, i32* %8, align 4
  %31 = add nsw i32 %30, 1
  store i32 %31, i32* %8, align 4
  br label %9

32:                                               ; preds = %9
  store i32 1, i32* %4, align 4
  br label %33

33:                                               ; preds = %32, %27
  %34 = load i32, i32* %4, align 4
  ret i32 %34
}

declare dso_local i32 @printf(i8*, ...) #1


!llvm.module.flags = !{!0}
!llvm.ident = !{!1}

!0 = !{i32 1, !"wchar_size", i32 4}
!1 = !{!"clang version 10.0.0-4ubuntu1 "}
